target datalayout = "e-m:e-p270:32:32-p271:32:32-p272:64:64-i64:64-i128:128-f80:128-n8:16:32:64-S128"
target triple = "x86_64-pc-linux-gnu"

@.str.121 = private unnamed_addr constant [15 x i8] c"Safety IO Data\00", align 1

; Function Attrs: null_pointer_is_valid sspstrong uwtable
define internal i32 @dissect_pn_io_ps_uint(ptr noundef %0, i32 noundef %1, ptr noundef %2, ptr noundef %3, ptr noundef %4, i32 noundef %5, i8 noundef zeroext %6, ptr noundef %7) #0 {
  %9 = alloca ptr, align 8
  %10 = alloca i32, align 4
  %11 = alloca ptr, align 8
  %12 = alloca ptr, align 8
  %13 = alloca ptr, align 8
  %14 = alloca i32, align 4
  %15 = alloca i8, align 1
  %16 = alloca ptr, align 8
  %17 = alloca i64, align 8
  %18 = alloca i8, align 1
  store ptr %0, ptr %9, align 8
  store i32 %1, ptr %10, align 4
  store ptr %2, ptr %11, align 8
  store ptr %3, ptr %12, align 8
  store ptr %4, ptr %13, align 8
  store i32 %5, ptr %14, align 4
  store i8 %6, ptr %15, align 1
  store ptr %7, ptr %16, align 8
  call void @llvm.lifetime.start.p0(i64 8, ptr %17) #5
  call void @llvm.lifetime.start.p0(i64 1, ptr %18) #5
  store i8 0, ptr %18, align 1
  %19 = load i8, ptr %15, align 1
  %20 = zext i8 %19 to i32
  switch i32 %20, label %105 [
    i32 1, label %21
    i32 2, label %32
    i32 3, label %43
    i32 4, label %54
    i32 5, label %65
    i32 6, label %75
    i32 7, label %85
    i32 8, label %95
  ]

21:                                               ; preds = %8
  %22 = load ptr, ptr %9, align 8
  %23 = load i32, ptr %10, align 4
  %24 = call zeroext i8 @tvb_get_uint8(ptr noundef %22, i32 noundef %23)
  %25 = zext i8 %24 to i64
  store i64 %25, ptr %17, align 8
  %26 = load ptr, ptr %16, align 8
  %27 = icmp ne ptr %26, null
  br i1 %27, label %28, label %31

28:                                               ; preds = %21
  %29 = load i64, ptr %17, align 8
  %30 = load ptr, ptr %16, align 8
  store i64 %29, ptr %30, align 8
  br label %31

31:                                               ; preds = %28, %21
  br label %113

32:                                               ; preds = %8
  %33 = load ptr, ptr %9, align 8
  %34 = load i32, ptr %10, align 4
  %35 = call zeroext i16 @tvb_get_letohs(ptr noundef %33, i32 noundef %34)
  %36 = zext i16 %35 to i64
  store i64 %36, ptr %17, align 8
  %37 = load ptr, ptr %16, align 8
  %38 = icmp ne ptr %37, null
  br i1 %38, label %39, label %42

39:                                               ; preds = %32
  %40 = load i64, ptr %17, align 8
  %41 = load ptr, ptr %16, align 8
  store i64 %40, ptr %41, align 8
  br label %42

42:                                               ; preds = %39, %32
  br label %113

43:                                               ; preds = %8
  %44 = load ptr, ptr %9, align 8
  %45 = load i32, ptr %10, align 4
  %46 = call i32 @tvb_get_letoh24(ptr noundef %44, i32 noundef %45)
  %47 = zext i32 %46 to i64
  store i64 %47, ptr %17, align 8
  %48 = load ptr, ptr %16, align 8
  %49 = icmp ne ptr %48, null
  br i1 %49, label %50, label %53

50:                                               ; preds = %43
  %51 = load i64, ptr %17, align 8
  %52 = load ptr, ptr %16, align 8
  store i64 %51, ptr %52, align 8
  br label %53

53:                                               ; preds = %50, %43
  br label %113

54:                                               ; preds = %8
  %55 = load ptr, ptr %9, align 8
  %56 = load i32, ptr %10, align 4
  %57 = call i32 @tvb_get_letohl(ptr noundef %55, i32 noundef %56)
  %58 = zext i32 %57 to i64
  store i64 %58, ptr %17, align 8
  %59 = load ptr, ptr %16, align 8
  %60 = icmp ne ptr %59, null
  br i1 %60, label %61, label %64

61:                                               ; preds = %54
  %62 = load i64, ptr %17, align 8
  %63 = load ptr, ptr %16, align 8
  store i64 %62, ptr %63, align 8
  br label %64

64:                                               ; preds = %61, %54
  br label %113

65:                                               ; preds = %8
  %66 = load ptr, ptr %9, align 8
  %67 = load i32, ptr %10, align 4
  %68 = call i64 @tvb_get_letoh40(ptr noundef %66, i32 noundef %67)
  store i64 %68, ptr %17, align 8
  %69 = load ptr, ptr %16, align 8
  %70 = icmp ne ptr %69, null
  br i1 %70, label %71, label %74

71:                                               ; preds = %65
  %72 = load i64, ptr %17, align 8
  %73 = load ptr, ptr %16, align 8
  store i64 %72, ptr %73, align 8
  br label %74

74:                                               ; preds = %71, %65
  br label %113

75:                                               ; preds = %8
  %76 = load ptr, ptr %9, align 8
  %77 = load i32, ptr %10, align 4
  %78 = call i64 @tvb_get_letoh48(ptr noundef %76, i32 noundef %77)
  store i64 %78, ptr %17, align 8
  %79 = load ptr, ptr %16, align 8
  %80 = icmp ne ptr %79, null
  br i1 %80, label %81, label %84

81:                                               ; preds = %75
  %82 = load i64, ptr %17, align 8
  %83 = load ptr, ptr %16, align 8
  store i64 %82, ptr %83, align 8
  br label %84

84:                                               ; preds = %81, %75
  br label %113

85:                                               ; preds = %8
  %86 = load ptr, ptr %9, align 8
  %87 = load i32, ptr %10, align 4
  %88 = call i64 @tvb_get_letoh56(ptr noundef %86, i32 noundef %87)
  store i64 %88, ptr %17, align 8
  %89 = load ptr, ptr %16, align 8
  %90 = icmp ne ptr %89, null
  br i1 %90, label %91, label %94

91:                                               ; preds = %85
  %92 = load i64, ptr %17, align 8
  %93 = load ptr, ptr %16, align 8
  store i64 %92, ptr %93, align 8
  br label %94

94:                                               ; preds = %91, %85
  br label %113

95:                                               ; preds = %8
  %96 = load ptr, ptr %9, align 8
  %97 = load i32, ptr %10, align 4
  %98 = call i64 @tvb_get_letoh64(ptr noundef %96, i32 noundef %97)
  store i64 %98, ptr %17, align 8
  %99 = load ptr, ptr %16, align 8
  %100 = icmp ne ptr %99, null
  br i1 %100, label %101, label %104

101:                                              ; preds = %95
  %102 = load i64, ptr %17, align 8
  %103 = load ptr, ptr %16, align 8
  store i64 %102, ptr %103, align 8
  br label %104

104:                                              ; preds = %101, %95
  br label %113

105:                                              ; preds = %8
  %106 = load ptr, ptr %9, align 8
  %107 = load i32, ptr %10, align 4
  %108 = load ptr, ptr %11, align 8
  %109 = load ptr, ptr %12, align 8
  %110 = load i8, ptr %15, align 1
  %111 = zext i8 %110 to i32
  %112 = call i32 @dissect_pn_user_data(ptr noundef %106, i32 noundef %107, ptr noundef %108, ptr noundef %109, i32 noundef %111, ptr noundef @.str.121)
  store i8 1, ptr %18, align 1
  br label %113

113:                                              ; preds = %105, %104, %94, %84, %74, %64, %53, %42, %31
  %114 = load ptr, ptr %12, align 8
  %115 = icmp ne ptr %114, null
  br i1 %115, label %116, label %136

116:                                              ; preds = %113
  %117 = load i8, ptr %18, align 1, !range !8, !noundef !9
  %118 = trunc i8 %117 to i1
  %119 = zext i1 %118 to i32
  %120 = icmp eq i32 %119, 0
  br i1 %120, label %121, label %136

121:                                              ; preds = %116
  %122 = load ptr, ptr %12, align 8
  %123 = load i32, ptr %14, align 4
  %124 = load ptr, ptr %9, align 8
  %125 = load i32, ptr %10, align 4
  %126 = load i8, ptr %15, align 1
  %127 = zext i8 %126 to i32
  %128 = load ptr, ptr %13, align 8
  %129 = getelementptr i8, ptr %128, i64 0
  %130 = load i8, ptr %129, align 1
  %131 = zext i8 %130 to i32
  %132 = and i32 %131, 16
  %133 = icmp ne i32 %132, 0
  %134 = select i1 %133, i32 -2147483648, i32 0
  %135 = call ptr @proto_tree_add_item(ptr noundef %122, i32 noundef %123, ptr noundef %124, i32 noundef %125, i32 noundef %127, i32 noundef %134)
  br label %136

136:                                              ; preds = %121, %116, %113
  %137 = load i32, ptr %10, align 4
  %138 = load i8, ptr %15, align 1
  %139 = zext i8 %138 to i32
  %140 = add i32 %137, %139
  call void @llvm.lifetime.end.p0(i64 1, ptr %18) #5
  call void @llvm.lifetime.end.p0(i64 8, ptr %17) #5
  ret i32 %140
}