; Function Attrs: null_pointer_is_valid sspstrong uwtable
define internal fastcc noundef i32 @dissect_pn_io_ps_uint(ptr noundef %0, i32 noundef %1, ptr noundef %2, ptr noundef %3, ptr noundef readonly captures(none) %4, i32 noundef %5, i8 noundef zeroext %6, ptr noundef writeonly captures(address_is_null) %7) unnamed_addr #0 {
  %9 = zext i8 %6 to i32
  switch i8 %6, label %.thread [
    i8 1, label %10
    i8 2, label %14
    i8 3, label %18
    i8 4, label %22
    i8 5, label %26
    i8 6, label %28
    i8 7, label %30
    i8 8, label %32
  ]

10:                                               ; preds = %8
  %11 = tail call zeroext i8 @tvb_get_uint8(ptr noundef %0, i32 noundef %1)
  %.not63 = icmp eq ptr %7, null
  br i1 %.not63, label %35, label %12

12:                                               ; preds = %10
  %13 = zext i8 %11 to i64
  br label %.sink.split

14:                                               ; preds = %8
  %15 = tail call zeroext i16 @tvb_get_letohs(ptr noundef %0, i32 noundef %1)
  %.not62 = icmp eq ptr %7, null
  br i1 %.not62, label %35, label %16

16:                                               ; preds = %14
  %17 = zext i16 %15 to i64
  br label %.sink.split

18:                                               ; preds = %8
  %19 = tail call i32 @tvb_get_letoh24(ptr noundef %0, i32 noundef %1)
  %.not61 = icmp eq ptr %7, null
  br i1 %.not61, label %35, label %20

20:                                               ; preds = %18
  %21 = zext i32 %19 to i64
  br label %.sink.split

22:                                               ; preds = %8
  %23 = tail call i32 @tvb_get_letohl(ptr noundef %0, i32 noundef %1)
  %.not60 = icmp eq ptr %7, null
  br i1 %.not60, label %35, label %24

24:                                               ; preds = %22
  %25 = zext i32 %23 to i64
  br label %.sink.split

26:                                               ; preds = %8
  %27 = tail call i64 @tvb_get_letoh40(ptr noundef %0, i32 noundef %1)
  %.not59 = icmp eq ptr %7, null
  br i1 %.not59, label %35, label %.sink.split

28:                                               ; preds = %8
  %29 = tail call i64 @tvb_get_letoh48(ptr noundef %0, i32 noundef %1)
  %.not58 = icmp eq ptr %7, null
  br i1 %.not58, label %35, label %.sink.split

30:                                               ; preds = %8
  %31 = tail call i64 @tvb_get_letoh56(ptr noundef %0, i32 noundef %1)
  %.not57 = icmp eq ptr %7, null
  br i1 %.not57, label %35, label %.sink.split

32:                                               ; preds = %8
  %33 = tail call i64 @tvb_get_letoh64(ptr noundef %0, i32 noundef %1)
  %.not = icmp eq ptr %7, null
  br i1 %.not, label %35, label %.sink.split

.thread:                                          ; preds = %8
  %34 = tail call i32 @dissect_pn_user_data(ptr noundef %0, i32 noundef %1, ptr noundef %2, ptr noundef %3, i32 noundef %9, ptr noundef nonnull @.str.121)
  br label %42

.sink.split:                                      ; preds = %32, %30, %28, %26, %12, %16, %20, %24
  %.sink = phi i64 [ %25, %24 ], [ %21, %20 ], [ %17, %16 ], [ %13, %12 ], [ %27, %26 ], [ %29, %28 ], [ %31, %30 ], [ %33, %32 ]
  store i64 %.sink, ptr %7, align 8
  br label %35

35:                                               ; preds = %.sink.split, %32, %30, %28, %26, %22, %18, %14, %10
  %.not64 = icmp eq ptr %3, null
  br i1 %.not64, label %42, label %36

36:                                               ; preds = %35
  %37 = load i8, ptr %4, align 1
  %38 = and i8 %37, 16
  %39 = zext nneg i8 %38 to i32
  %40 = shl nuw i32 %39, 27
  %41 = tail call ptr @proto_tree_add_item(ptr noundef nonnull %3, i32 noundef %5, ptr noundef %0, i32 noundef %1, i32 noundef %9, i32 noundef %40)
  br label %42

42:                                               ; preds = %.thread, %35, %36
  %43 = add i32 %1, %9
  ret i32 %43
}